; Function Attrs: mustprogress nofree nounwind uwtable
define noundef nonnull align 8 dereferenceable(48) ptr @_ZN17double_conversion23DoubleToStringConverter19EcmaScriptConverterEv() local_unnamed_addr #0 align 2 personality ptr @__gxx_personality_v0 {
  %1 = load atomic i8, ptr @_ZGVZN17double_conversion23DoubleToStringConverter19EcmaScriptConverterEvE9converter acquire, align 8
  %2 = icmp eq i8 %1, 0
  br i1 %2, label %3, label %6, !prof !3

3:                                                ; preds = %0
  %4 = tail call i32 @__cxa_guard_acquire(ptr nonnull @_ZGVZN17double_conversion23DoubleToStringConverter19EcmaScriptConverterEvE9converter) #13
  %.not = icmp eq i32 %4, 0
  br i1 %.not, label %6, label %5

5:                                                ; preds = %3
  store i32 9, ptr @_ZZN17double_conversion23DoubleToStringConverter19EcmaScriptConverterEvE9converter, align 8, !tbaa !4
  store ptr @.str, ptr getelementptr inbounds nuw (i8, ptr @_ZZN17double_conversion23DoubleToStringConverter19EcmaScriptConverterEvE9converter, i64 8), align 8, !tbaa !11
  store ptr @.str.1, ptr getelementptr inbounds nuw (i8, ptr @_ZZN17double_conversion23DoubleToStringConverter19EcmaScriptConverterEvE9converter, i64 16), align 8, !tbaa !12
  store i8 101, ptr getelementptr inbounds nuw (i8, ptr @_ZZN17double_conversion23DoubleToStringConverter19EcmaScriptConverterEvE9converter, i64 24), align 8, !tbaa !13
  store i32 -6, ptr getelementptr inbounds nuw (i8, ptr @_ZZN17double_conversion23DoubleToStringConverter19EcmaScriptConverterEvE9converter, i64 28), align 4, !tbaa !14
  store i32 21, ptr getelementptr inbounds nuw (i8, ptr @_ZZN17double_conversion23DoubleToStringConverter19EcmaScriptConverterEvE9converter, i64 32), align 8, !tbaa !15
  store i32 6, ptr getelementptr inbounds nuw (i8, ptr @_ZZN17double_conversion23DoubleToStringConverter19EcmaScriptConverterEvE9converter, i64 36), align 4, !tbaa !16
  store i32 0, ptr getelementptr inbounds nuw (i8, ptr @_ZZN17double_conversion23DoubleToStringConverter19EcmaScriptConverterEvE9converter, i64 40), align 8, !tbaa !17
  store i32 0, ptr getelementptr inbounds nuw (i8, ptr @_ZZN17double_conversion23DoubleToStringConverter19EcmaScriptConverterEvE9converter, i64 44), align 4, !tbaa !18
  tail call void @__cxa_guard_release(ptr nonnull @_ZGVZN17double_conversion23DoubleToStringConverter19EcmaScriptConverterEvE9converter) #13
  br label %6

6:                                                ; preds = %5, %3, %0
  ret ptr @_ZZN17double_conversion23DoubleToStringConverter19EcmaScriptConverterEvE9converter
}